target datalayout = "e-m:e-p270:32:32-p271:32:32-p272:64:64-i64:64-i128:128-f80:128-n8:16:32:64-S128"
target triple = "x86_64-pc-linux-gnu"

%"struct.duckdb_zstd::ZSTD_customMem" = type { ptr, ptr, ptr }
%"struct.duckdb_zstd::ZSTD_DCtx_s" = type { ptr, ptr, ptr, ptr, %"struct.duckdb_zstd::ZSTD_entropyDTables_t", [640 x i32], ptr, ptr, ptr, ptr, i64, %"struct.duckdb_zstd::ZSTD_frameHeader", i64, i64, i32, i32, i32, i32, %"struct.duckdb_zstd::XXH64_state_s", i64, i32, i32, i32, ptr, %"struct.duckdb_zstd::ZSTD_customMem", i64, i64, i64, i32, i32, ptr, ptr, i32, i32, i32, ptr, i32, i32, i32, i32, ptr, i64, i64, i64, ptr, i64, i64, i64, i64, i32, i32, i32, %"struct.duckdb_zstd::ZSTD_outBuffer_s", ptr, ptr, i32, [65568 x i8], [18 x i8], i64, i64 }
%"struct.duckdb_zstd::ZSTD_entropyDTables_t" = type { [513 x %"struct.duckdb_zstd::ZSTD_seqSymbol"], [257 x %"struct.duckdb_zstd::ZSTD_seqSymbol"], [513 x %"struct.duckdb_zstd::ZSTD_seqSymbol"], [4097 x i32], [3 x i32], [157 x i32] }
%"struct.duckdb_zstd::ZSTD_seqSymbol" = type { i16, i8, i8, i32 }
%"struct.duckdb_zstd::ZSTD_frameHeader" = type { i64, i64, i32, i32, i32, i32, i32, i32, i32 }
%"struct.duckdb_zstd::XXH64_state_s" = type { i64, i64, i64, i64, i64, [4 x i64], i32, [2 x i32] }
%"struct.duckdb_zstd::ZSTD_outBuffer_s" = type { ptr, i64, i64 }
%"struct.duckdb_zstd::ZSTD_DDictHashSet" = type { ptr, i64, i64 }

; Function Attrs: mustprogress uwtable
define internal void @_ZN11duckdb_zstdL21ZSTD_freeDDictHashSetEPNS_17ZSTD_DDictHashSetENS_14ZSTD_customMemE(ptr noundef %0, ptr noundef byval(%"struct.duckdb_zstd::ZSTD_customMem") align 8 %1) #0 {
  %3 = alloca ptr, align 8
  %4 = alloca %"struct.duckdb_zstd::ZSTD_customMem", align 8
  %5 = alloca %"struct.duckdb_zstd::ZSTD_customMem", align 8
  store ptr %0, ptr %3, align 8, !tbaa !33
  br label %6

6:                                                ; preds = %2
  br label %7

7:                                                ; preds = %6
  %8 = load ptr, ptr %3, align 8, !tbaa !33
  %9 = icmp ne ptr %8, null
  br i1 %9, label %10, label %19

10:                                               ; preds = %7
  %11 = load ptr, ptr %3, align 8, !tbaa !33
  %12 = getelementptr inbounds nuw %"struct.duckdb_zstd::ZSTD_DDictHashSet", ptr %11, i32 0, i32 0
  %13 = load ptr, ptr %12, align 8, !tbaa !51
  %14 = icmp ne ptr %13, null
  br i1 %14, label %15, label %19

15:                                               ; preds = %10
  %16 = load ptr, ptr %3, align 8, !tbaa !33
  %17 = getelementptr inbounds nuw %"struct.duckdb_zstd::ZSTD_DDictHashSet", ptr %16, i32 0, i32 0
  %18 = load ptr, ptr %17, align 8, !tbaa !51
  call void @llvm.memcpy.p0.p0.i64(ptr align 8 %4, ptr align 8 %1, i64 24, i1 false), !tbaa.struct !47
  call void @_ZN11duckdb_zstdL15ZSTD_customFreeEPvNS_14ZSTD_customMemE(ptr noundef %18, ptr noundef byval(%"struct.duckdb_zstd::ZSTD_customMem") align 8 %4)
  br label %19

19:                                               ; preds = %15, %10, %7
  %20 = load ptr, ptr %3, align 8, !tbaa !33
  %21 = icmp ne ptr %20, null
  br i1 %21, label %22, label %24

22:                                               ; preds = %19
  %23 = load ptr, ptr %3, align 8, !tbaa !33
  call void @llvm.memcpy.p0.p0.i64(ptr align 8 %5, ptr align 8 %1, i64 24, i1 false), !tbaa.struct !47
  call void @_ZN11duckdb_zstdL15ZSTD_customFreeEPvNS_14ZSTD_customMemE(ptr noundef %23, ptr noundef byval(%"struct.duckdb_zstd::ZSTD_customMem") align 8 %5)
  br label %24

24:                                               ; preds = %22, %19
  ret void
}

; Function Attrs: inlinehint mustprogress uwtable
define internal void @_ZN11duckdb_zstdL15ZSTD_customFreeEPvNS_14ZSTD_customMemE(ptr noundef %0, ptr noundef byval(%"struct.duckdb_zstd::ZSTD_customMem") align 8 %1) #5 {
  %3 = alloca ptr, align 8
  store ptr %0, ptr %3, align 8, !tbaa !33
  %4 = load ptr, ptr %3, align 8, !tbaa !33
  %5 = icmp ne ptr %4, null
  br i1 %5, label %6, label %19

6:                                                ; preds = %2
  %7 = getelementptr inbounds nuw %"struct.duckdb_zstd::ZSTD_customMem", ptr %1, i32 0, i32 1
  %8 = load ptr, ptr %7, align 8, !tbaa !49
  %9 = icmp ne ptr %8, null
  br i1 %9, label %10, label %16

10:                                               ; preds = %6
  %11 = getelementptr inbounds nuw %"struct.duckdb_zstd::ZSTD_customMem", ptr %1, i32 0, i32 1
  %12 = load ptr, ptr %11, align 8, !tbaa !49
  %13 = getelementptr inbounds nuw %"struct.duckdb_zstd::ZSTD_customMem", ptr %1, i32 0, i32 2
  %14 = load ptr, ptr %13, align 8, !tbaa !50
  %15 = load ptr, ptr %3, align 8, !tbaa !33
  call void %12(ptr noundef %14, ptr noundef %15)
  br label %18

16:                                               ; preds = %6
  %17 = load ptr, ptr %3, align 8, !tbaa !33
  call void @free(ptr noundef %17) #12
  br label %18

18:                                               ; preds = %16, %10
  br label %19

19:                                               ; preds = %18, %2
  ret void
}

; Function Attrs: mustprogress uwtable
define internal void @_ZN11duckdb_zstdL14ZSTD_clearDictEPNS_11ZSTD_DCtx_sE(ptr noundef %0) #0 {
  %2 = alloca ptr, align 8
  store ptr %0, ptr %2, align 8, !tbaa !3
  %3 = load ptr, ptr %2, align 8, !tbaa !3
  %4 = getelementptr inbounds nuw %"struct.duckdb_zstd::ZSTD_DCtx_s", ptr %3, i32 0, i32 30
  %5 = load ptr, ptr %4, align 8, !tbaa !8
  %6 = call noundef i64 @_ZN11duckdb_zstd14ZSTD_freeDDictEPNS_12ZSTD_DDict_sE(ptr noundef %5)
  %7 = load ptr, ptr %2, align 8, !tbaa !3
  %8 = getelementptr inbounds nuw %"struct.duckdb_zstd::ZSTD_DCtx_s", ptr %7, i32 0, i32 30
  store ptr null, ptr %8, align 8, !tbaa !8
  %9 = load ptr, ptr %2, align 8, !tbaa !3
  %10 = getelementptr inbounds nuw %"struct.duckdb_zstd::ZSTD_DCtx_s", ptr %9, i32 0, i32 31
  store ptr null, ptr %10, align 8, !tbaa !37
  %11 = load ptr, ptr %2, align 8, !tbaa !3
  %12 = getelementptr inbounds nuw %"struct.duckdb_zstd::ZSTD_DCtx_s", ptr %11, i32 0, i32 34
  store i32 0, ptr %12, align 8, !tbaa !40
  ret void
}

; Function Attrs: mustprogress uwtable
define noundef i64 @_ZN11duckdb_zstd13ZSTD_freeDCtxEPNS_11ZSTD_DCtx_sE(ptr noundef %0) #0 {
  %2 = alloca i64, align 8
  %3 = alloca ptr, align 8
  %4 = alloca %"struct.duckdb_zstd::ZSTD_customMem", align 8
  %5 = alloca %"struct.duckdb_zstd::ZSTD_customMem", align 8
  %6 = alloca %"struct.duckdb_zstd::ZSTD_customMem", align 8
  %7 = alloca %"struct.duckdb_zstd::ZSTD_customMem", align 8
  store ptr %0, ptr %3, align 8, !tbaa !3
  %8 = load ptr, ptr %3, align 8, !tbaa !3
  %9 = icmp eq ptr %8, null
  br i1 %9, label %10, label %11

10:                                               ; preds = %1
  store i64 0, ptr %2, align 8
  br label %48

11:                                               ; preds = %1
  br label %12

12:                                               ; preds = %11
  %13 = load ptr, ptr %3, align 8, !tbaa !3
  %14 = getelementptr inbounds nuw %"struct.duckdb_zstd::ZSTD_DCtx_s", ptr %13, i32 0, i32 27
  %15 = load i64, ptr %14, align 8, !tbaa !35
  %16 = icmp ne i64 %15, 0
  br i1 %16, label %17, label %26

17:                                               ; preds = %12
  br label %18

18:                                               ; preds = %17
  br label %19

19:                                               ; preds = %18
  br label %20

20:                                               ; preds = %19
  br label %21

21:                                               ; preds = %20
  br label %22

22:                                               ; preds = %21
  br label %23

23:                                               ; preds = %22
  br label %24

24:                                               ; preds = %23
  br label %25

25:                                               ; preds = %24
  store i64 -64, ptr %2, align 8
  br label %48

26:                                               ; preds = %12
  br label %27

27:                                               ; preds = %26
  call void @llvm.lifetime.start.p0(i64 24, ptr %4) #12
  %28 = load ptr, ptr %3, align 8, !tbaa !3
  %29 = getelementptr inbounds nuw %"struct.duckdb_zstd::ZSTD_DCtx_s", ptr %28, i32 0, i32 24
  call void @llvm.memcpy.p0.p0.i64(ptr align 8 %4, ptr align 8 %29, i64 24, i1 false), !tbaa.struct !47
  %30 = load ptr, ptr %3, align 8, !tbaa !3
  call void @_ZN11duckdb_zstdL14ZSTD_clearDictEPNS_11ZSTD_DCtx_sE(ptr noundef %30)
  %31 = load ptr, ptr %3, align 8, !tbaa !3
  %32 = getelementptr inbounds nuw %"struct.duckdb_zstd::ZSTD_DCtx_s", ptr %31, i32 0, i32 40
  %33 = load ptr, ptr %32, align 8, !tbaa !36
  call void @llvm.memcpy.p0.p0.i64(ptr align 8 %5, ptr align 8 %4, i64 24, i1 false), !tbaa.struct !47
  call void @_ZN11duckdb_zstdL15ZSTD_customFreeEPvNS_14ZSTD_customMemE(ptr noundef %33, ptr noundef byval(%"struct.duckdb_zstd::ZSTD_customMem") align 8 %5)
  %34 = load ptr, ptr %3, align 8, !tbaa !3
  %35 = getelementptr inbounds nuw %"struct.duckdb_zstd::ZSTD_DCtx_s", ptr %34, i32 0, i32 40
  store ptr null, ptr %35, align 8, !tbaa !36
  %36 = load ptr, ptr %3, align 8, !tbaa !3
  %37 = getelementptr inbounds nuw %"struct.duckdb_zstd::ZSTD_DCtx_s", ptr %36, i32 0, i32 35
  %38 = load ptr, ptr %37, align 8, !tbaa !46
  %39 = icmp ne ptr %38, null
  br i1 %39, label %40, label %46

40:                                               ; preds = %27
  %41 = load ptr, ptr %3, align 8, !tbaa !3
  %42 = getelementptr inbounds nuw %"struct.duckdb_zstd::ZSTD_DCtx_s", ptr %41, i32 0, i32 35
  %43 = load ptr, ptr %42, align 8, !tbaa !46
  call void @llvm.memcpy.p0.p0.i64(ptr align 8 %6, ptr align 8 %4, i64 24, i1 false), !tbaa.struct !47
  call void @_ZN11duckdb_zstdL21ZSTD_freeDDictHashSetEPNS_17ZSTD_DDictHashSetENS_14ZSTD_customMemE(ptr noundef %43, ptr noundef byval(%"struct.duckdb_zstd::ZSTD_customMem") align 8 %6)
  %44 = load ptr, ptr %3, align 8, !tbaa !3
  %45 = getelementptr inbounds nuw %"struct.duckdb_zstd::ZSTD_DCtx_s", ptr %44, i32 0, i32 35
  store ptr null, ptr %45, align 8, !tbaa !46
  br label %46

46:                                               ; preds = %40, %27
  %47 = load ptr, ptr %3, align 8, !tbaa !3
  call void @llvm.memcpy.p0.p0.i64(ptr align 8 %7, ptr align 8 %4, i64 24, i1 false), !tbaa.struct !47
  call void @_ZN11duckdb_zstdL15ZSTD_customFreeEPvNS_14ZSTD_customMemE(ptr noundef %47, ptr noundef byval(%"struct.duckdb_zstd::ZSTD_customMem") align 8 %7)
  store i64 0, ptr %2, align 8
  call void @llvm.lifetime.end.p0(i64 24, ptr %4) #12
  br label %48

48:                                               ; preds = %46, %25, %10
  %49 = load i64, ptr %2, align 8
  ret i64 %49
}