; Function Attrs: mustprogress uwtable
define noundef range(i64 -64, 1) i64 @_ZN11duckdb_zstd13ZSTD_freeDCtxEPNS_11ZSTD_DCtx_sE(ptr noundef %0) local_unnamed_addr #0 {
  %2 = icmp eq ptr %0, null
  br i1 %2, label %_ZN11duckdb_zstdL15ZSTD_customFreeEPvNS_14ZSTD_customMemE.exit19, label %3

3:                                                ; preds = %1
  %4 = getelementptr inbounds nuw i8, ptr %0, i64 30168
  %5 = load i64, ptr %4, align 8, !tbaa !49
  %.not = icmp eq i64 %5, 0
  br i1 %.not, label %6, label %_ZN11duckdb_zstdL15ZSTD_customFreeEPvNS_14ZSTD_customMemE.exit19

6:                                                ; preds = %3
  %.sroa.6.0..sroa_idx = getelementptr inbounds nuw i8, ptr %0, i64 30136
  %.sroa.6.0.copyload = load ptr, ptr %.sroa.6.0..sroa_idx, align 8, !tbaa !51
  %.sroa.8.0..sroa_idx = getelementptr inbounds nuw i8, ptr %0, i64 30144
  %.sroa.8.0.copyload = load ptr, ptr %.sroa.8.0..sroa_idx, align 8, !tbaa !51
  %7 = getelementptr inbounds nuw i8, ptr %0, i64 30184
  %8 = load ptr, ptr %7, align 8, !tbaa !3
  %9 = tail call noundef i64 @_ZN11duckdb_zstd14ZSTD_freeDDictEPNS_12ZSTD_DDict_sE(ptr noundef %8)
  %10 = getelementptr inbounds nuw i8, ptr %0, i64 30208
  store i32 0, ptr %10, align 8, !tbaa !33
  tail call void @llvm.memset.p0.i64(ptr noundef nonnull align 8 dereferenceable(16) %7, i8 0, i64 16, i1 false)
  %11 = getelementptr inbounds nuw i8, ptr %0, i64 30240
  %12 = load ptr, ptr %11, align 8, !tbaa !50
  %.not.i = icmp eq ptr %12, null
  br i1 %.not.i, label %_ZN11duckdb_zstdL15ZSTD_customFreeEPvNS_14ZSTD_customMemE.exit, label %13

13:                                               ; preds = %6
  %.not4.i = icmp eq ptr %.sroa.6.0.copyload, null
  br i1 %.not4.i, label %15, label %14

14:                                               ; preds = %13
  tail call void %.sroa.6.0.copyload(ptr noundef %.sroa.8.0.copyload, ptr noundef nonnull %12)
  br label %_ZN11duckdb_zstdL15ZSTD_customFreeEPvNS_14ZSTD_customMemE.exit

15:                                               ; preds = %13
  tail call void @free(ptr noundef nonnull %12) #17
  br label %_ZN11duckdb_zstdL15ZSTD_customFreeEPvNS_14ZSTD_customMemE.exit

_ZN11duckdb_zstdL15ZSTD_customFreeEPvNS_14ZSTD_customMemE.exit: ; preds = %6, %14, %15
  store ptr null, ptr %11, align 8, !tbaa !50
  %16 = getelementptr inbounds nuw i8, ptr %0, i64 30216
  %17 = load ptr, ptr %16, align 8, !tbaa !41
  %.not12 = icmp eq ptr %17, null
  br i1 %.not12, label %23, label %18

18:                                               ; preds = %_ZN11duckdb_zstdL15ZSTD_customFreeEPvNS_14ZSTD_customMemE.exit
  %19 = load ptr, ptr %17, align 8, !tbaa !52
  %.not.i16 = icmp eq ptr %19, null
  %.not4.i10.i = icmp eq ptr %.sroa.6.0.copyload, null
  br i1 %.not.i16, label %_ZN11duckdb_zstdL15ZSTD_customFreeEPvNS_14ZSTD_customMemE.exit.i, label %20

20:                                               ; preds = %18
  br i1 %.not4.i10.i, label %_ZN11duckdb_zstdL15ZSTD_customFreeEPvNS_14ZSTD_customMemE.exit.thread.i, label %_ZN11duckdb_zstdL15ZSTD_customFreeEPvNS_14ZSTD_customMemE.exit.thread18.i

_ZN11duckdb_zstdL15ZSTD_customFreeEPvNS_14ZSTD_customMemE.exit.thread18.i: ; preds = %20
  tail call void %.sroa.6.0.copyload(ptr noundef %.sroa.8.0.copyload, ptr noundef nonnull %19)
  br label %21

_ZN11duckdb_zstdL15ZSTD_customFreeEPvNS_14ZSTD_customMemE.exit.thread.i: ; preds = %20
  tail call void @free(ptr noundef nonnull %19) #17
  br label %22

_ZN11duckdb_zstdL15ZSTD_customFreeEPvNS_14ZSTD_customMemE.exit.i: ; preds = %18
  br i1 %.not4.i10.i, label %22, label %21

21:                                               ; preds = %_ZN11duckdb_zstdL15ZSTD_customFreeEPvNS_14ZSTD_customMemE.exit.i, %_ZN11duckdb_zstdL15ZSTD_customFreeEPvNS_14ZSTD_customMemE.exit.thread18.i
  tail call void %.sroa.6.0.copyload(ptr noundef %.sroa.8.0.copyload, ptr noundef nonnull %17)
  br label %_ZN11duckdb_zstdL21ZSTD_freeDDictHashSetEPNS_17ZSTD_DDictHashSetENS_14ZSTD_customMemE.exit

22:                                               ; preds = %_ZN11duckdb_zstdL15ZSTD_customFreeEPvNS_14ZSTD_customMemE.exit.i, %_ZN11duckdb_zstdL15ZSTD_customFreeEPvNS_14ZSTD_customMemE.exit.thread.i
  tail call void @free(ptr noundef nonnull %17) #17
  br label %_ZN11duckdb_zstdL21ZSTD_freeDDictHashSetEPNS_17ZSTD_DDictHashSetENS_14ZSTD_customMemE.exit

_ZN11duckdb_zstdL21ZSTD_freeDDictHashSetEPNS_17ZSTD_DDictHashSetENS_14ZSTD_customMemE.exit: ; preds = %21, %22
  store ptr null, ptr %16, align 8, !tbaa !41
  br label %23

23:                                               ; preds = %_ZN11duckdb_zstdL15ZSTD_customFreeEPvNS_14ZSTD_customMemE.exit, %_ZN11duckdb_zstdL21ZSTD_freeDDictHashSetEPNS_17ZSTD_DDictHashSetENS_14ZSTD_customMemE.exit
  %.not4.i18 = icmp eq ptr %.sroa.6.0.copyload, null
  br i1 %.not4.i18, label %25, label %24

24:                                               ; preds = %23
  tail call void %.sroa.6.0.copyload(ptr noundef %.sroa.8.0.copyload, ptr noundef nonnull %0)
  br label %_ZN11duckdb_zstdL15ZSTD_customFreeEPvNS_14ZSTD_customMemE.exit19

25:                                               ; preds = %23
  tail call void @free(ptr noundef nonnull %0) #17
  br label %_ZN11duckdb_zstdL15ZSTD_customFreeEPvNS_14ZSTD_customMemE.exit19

_ZN11duckdb_zstdL15ZSTD_customFreeEPvNS_14ZSTD_customMemE.exit19: ; preds = %25, %24, %3, %1
  %.0 = phi i64 [ 0, %1 ], [ -64, %3 ], [ 0, %24 ], [ 0, %25 ]
  ret i64 %.0
}